target datalayout = "e-m:e-p270:32:32-p271:32:32-p272:64:64-i64:64-i128:128-f80:128-n8:16:32:64-S128"
target triple = "x86_64-pc-linux-gnu"

%class.JDK_Version = type { i32, i32, i32, i32, i32 }
%struct.AliasedFlag = type { ptr, ptr }

@_ZL17aliased_jvm_flags = internal constant [2 x %struct.AliasedFlag] [%struct.AliasedFlag { ptr @.str.50, ptr @.str.315 }, %struct.AliasedFlag zeroinitializer], align 16
@g_assert_poison = external global ptr, align 8
@.str.61 = private unnamed_addr constant [40 x i8] c"src/hotspot/share/runtime/arguments.cpp\00", align 1
@.str.62 = private unnamed_addr constant [110 x i8] c"Option %s was deprecated in version %s and will likely be removed in a future release. Use option %s instead.\00", align 1
@.str.63 = private unnamed_addr constant [87 x i8] c"Option %s was deprecated in version %s and will likely be removed in a future release.\00", align 1

; Function Attrs: mustprogress nounwind uwtable
define linkonce_odr hidden void @_ZN11JDK_VersionC2Ev(ptr noundef nonnull align 4 dereferenceable(20) %0) unnamed_addr #1 comdat align 2 {
  %2 = alloca ptr, align 8
  store ptr %0, ptr %2, align 8
  %3 = load ptr, ptr %2, align 8
  %4 = getelementptr inbounds %class.JDK_Version, ptr %3, i32 0, i32 0
  store i32 0, ptr %4, align 4
  %5 = getelementptr inbounds %class.JDK_Version, ptr %3, i32 0, i32 1
  store i32 0, ptr %5, align 4
  %6 = getelementptr inbounds %class.JDK_Version, ptr %3, i32 0, i32 2
  store i32 0, ptr %6, align 4
  %7 = getelementptr inbounds %class.JDK_Version, ptr %3, i32 0, i32 3
  store i32 0, ptr %7, align 4
  %8 = getelementptr inbounds %class.JDK_Version, ptr %3, i32 0, i32 4
  store i32 0, ptr %8, align 4
  ret void
}

; Function Attrs: mustprogress nounwind uwtable
define hidden noundef ptr @_ZN9Arguments14real_flag_nameEPKc(ptr noundef %0) #1 align 2 {
  %2 = alloca ptr, align 8
  %3 = alloca ptr, align 8
  %4 = alloca i64, align 8
  %5 = alloca ptr, align 8
  store ptr %0, ptr %3, align 8
  store i64 0, ptr %4, align 8
  br label %6

6:                                                ; preds = %26, %1
  %7 = load i64, ptr %4, align 8
  %8 = getelementptr inbounds [2 x %struct.AliasedFlag], ptr @_ZL17aliased_jvm_flags, i64 0, i64 %7
  %9 = getelementptr inbounds %struct.AliasedFlag, ptr %8, i32 0, i32 0
  %10 = load ptr, ptr %9, align 16
  %11 = icmp ne ptr %10, null
  br i1 %11, label %12, label %29

12:                                               ; preds = %6
  %13 = load i64, ptr %4, align 8
  %14 = getelementptr inbounds [2 x %struct.AliasedFlag], ptr @_ZL17aliased_jvm_flags, i64 0, i64 %13
  store ptr %14, ptr %5, align 8
  %15 = load ptr, ptr %5, align 8
  %16 = getelementptr inbounds %struct.AliasedFlag, ptr %15, i32 0, i32 0
  %17 = load ptr, ptr %16, align 8
  %18 = load ptr, ptr %3, align 8
  %19 = call i32 @strcmp(ptr noundef %17, ptr noundef %18) #12
  %20 = icmp eq i32 %19, 0
  br i1 %20, label %21, label %25

21:                                               ; preds = %12
  %22 = load ptr, ptr %5, align 8
  %23 = getelementptr inbounds %struct.AliasedFlag, ptr %22, i32 0, i32 1
  %24 = load ptr, ptr %23, align 8
  store ptr %24, ptr %2, align 8
  br label %31

25:                                               ; preds = %12
  br label %26

26:                                               ; preds = %25
  %27 = load i64, ptr %4, align 8
  %28 = add i64 %27, 1
  store i64 %28, ptr %4, align 8
  br label %6, !llvm.loop !10

29:                                               ; preds = %6
  %30 = load ptr, ptr %3, align 8
  store ptr %30, ptr %2, align 8
  br label %31

31:                                               ; preds = %29, %21
  %32 = load ptr, ptr %2, align 8
  ret ptr %32
}

; Function Attrs: mustprogress nounwind uwtable
define hidden noundef ptr @_ZN9Arguments30handle_aliases_and_deprecationEPKc(ptr noundef %0) #1 align 2 {
  %2 = alloca ptr, align 8
  %3 = alloca ptr, align 8
  %4 = alloca ptr, align 8
  %5 = alloca %class.JDK_Version, align 4
  %6 = alloca [256 x i8], align 16
  store ptr %0, ptr %3, align 8
  %7 = load ptr, ptr %3, align 8
  %8 = call noundef ptr @_ZN9Arguments14real_flag_nameEPKc(ptr noundef %7)
  store ptr %8, ptr %4, align 8
  call void @_ZN11JDK_VersionC2Ev(ptr noundef nonnull align 4 dereferenceable(20) %5)
  %9 = load ptr, ptr %3, align 8
  %10 = call noundef i32 @_ZN9Arguments18is_deprecated_flagEPKcP11JDK_Version(ptr noundef %9, ptr noundef %5)
  switch i32 %10, label %33 [
    i32 -1, label %11
    i32 0, label %17
    i32 1, label %19
  ]

11:                                               ; preds = %1
  %12 = load ptr, ptr %3, align 8
  %13 = call noundef zeroext i1 @_ZN9Arguments16is_obsolete_flagEPKcP11JDK_Version(ptr noundef %12, ptr noundef %5)
  br i1 %13, label %16, label %14

14:                                               ; preds = %11
  %15 = load ptr, ptr %4, align 8
  store ptr %15, ptr %2, align 8
  br label %37

16:                                               ; preds = %11
  store ptr null, ptr %2, align 8
  br label %37

17:                                               ; preds = %1
  %18 = load ptr, ptr %4, align 8
  store ptr %18, ptr %2, align 8
  br label %37

19:                                               ; preds = %1
  %20 = getelementptr inbounds [256 x i8], ptr %6, i64 0, i64 0
  call void @_ZNK11JDK_Version9to_stringEPcm(ptr noundef nonnull align 4 dereferenceable(20) %5, ptr noundef %20, i64 noundef 256)
  %21 = load ptr, ptr %4, align 8
  %22 = load ptr, ptr %3, align 8
  %23 = icmp ne ptr %21, %22
  br i1 %23, label %24, label %28

24:                                               ; preds = %19
  %25 = load ptr, ptr %3, align 8
  %26 = getelementptr inbounds [256 x i8], ptr %6, i64 0, i64 0
  %27 = load ptr, ptr %4, align 8
  call void (ptr, ...) @_Z7warningPKcz(ptr noundef @.str.62, ptr noundef %25, ptr noundef %26, ptr noundef %27)
  br label %31

28:                                               ; preds = %19
  %29 = load ptr, ptr %3, align 8
  %30 = getelementptr inbounds [256 x i8], ptr %6, i64 0, i64 0
  call void (ptr, ...) @_Z7warningPKcz(ptr noundef @.str.63, ptr noundef %29, ptr noundef %30)
  br label %31

31:                                               ; preds = %28, %24
  %32 = load ptr, ptr %4, align 8
  store ptr %32, ptr %2, align 8
  br label %37

33:                                               ; preds = %1
  br label %34

34:                                               ; preds = %33
  %35 = load ptr, ptr @g_assert_poison, align 8
  store i8 88, ptr %35, align 1
  call void @_Z28report_should_not_reach_herePKci(ptr noundef @.str.61, i32 noundef 881) #14
  unreachable

36:                                               ; No predecessors!
  store ptr null, ptr %2, align 8
  br label %37

37:                                               ; preds = %36, %31, %17, %16, %14
  %38 = load ptr, ptr %2, align 8
  ret ptr %38
}