; Function Attrs: mustprogress nounwind uwtable
define hidden noundef ptr @_ZN9Arguments30handle_aliases_and_deprecationEPKc(ptr noundef %0) local_unnamed_addr #0 align 2 {
  %2 = alloca %class.JDK_Version, align 4
  %3 = alloca [256 x i8], align 16
  %4 = tail call i32 @strcmp(ptr noundef nonnull dereferenceable(22) @.str.50, ptr noundef nonnull readonly dereferenceable(1) %0) #30
  %5 = icmp eq i32 %4, 0
  %spec.select.i = select i1 %5, ptr @.str.315, ptr %0
  call void @llvm.memset.p0.i64(ptr noundef nonnull align 4 dereferenceable(20) %2, i8 0, i64 20, i1 false)
  %6 = call noundef i32 @_ZN9Arguments18is_deprecated_flagEPKcP11JDK_Version(ptr noundef %0, ptr noundef nonnull %2)
  switch i32 %6, label %default.unreachable14 [
    i32 -1, label %7
    i32 0, label %12
    i32 1, label %9
  ]

7:                                                ; preds = %1
  %8 = call noundef zeroext i1 @_ZN9Arguments16is_obsolete_flagEPKcP11JDK_Version(ptr noundef %0, ptr noundef nonnull %2)
  %. = select i1 %8, ptr null, ptr %spec.select.i
  br label %12

9:                                                ; preds = %1
  call void @_ZNK11JDK_Version9to_stringEPcm(ptr noundef nonnull align 4 dereferenceable(20) %2, ptr noundef nonnull %3, i64 noundef 256) #31
  %.not = icmp eq ptr %spec.select.i, %0
  br i1 %.not, label %11, label %10

10:                                               ; preds = %9
  call void (ptr, ...) @_Z7warningPKcz(ptr noundef nonnull @.str.62, ptr noundef %0, ptr noundef nonnull %3, ptr noundef %spec.select.i) #31
  br label %12

11:                                               ; preds = %9
  call void (ptr, ...) @_Z7warningPKcz(ptr noundef nonnull @.str.63, ptr noundef %0, ptr noundef nonnull %3) #31
  br label %12

default.unreachable14:                            ; preds = %1
  unreachable

12:                                               ; preds = %10, %11, %1, %7
  %.0 = phi ptr [ %., %7 ], [ %spec.select.i, %1 ], [ %spec.select.i, %11 ], [ %spec.select.i, %10 ]
  ret ptr %.0
}